target datalayout = "e-m:e-p270:32:32-p271:32:32-p272:64:64-i64:64-i128:128-f80:128-n8:16:32:64-S128"
target triple = "x86_64-pc-linux-gnu"

%class.DecodeAsItem = type { ptr, ptr, ptr, i32, %class.QString, ptr, %class.QString, %class.QString, ptr }
%class.QString = type { %struct.QArrayDataPointer }
%struct.QArrayDataPointer = type { ptr, ptr, i64 }
%class.QStringView = type { i64, ptr }

@_ZN7QString6_emptyE = external constant i16, align 2

; Function Attrs: mustprogress nounwind uwtable
define linkonce_odr noundef ptr @_ZN11QStringView10castHelperI5QCharEEPKDsPKT_(ptr noundef %0) #1 comdat align 2 {
  %2 = alloca ptr, align 8
  store ptr %0, ptr %2, align 8
  %3 = load ptr, ptr %2, align 8
  ret ptr %3
}

; Function Attrs: mustprogress nounwind uwtable
define linkonce_odr noundef ptr @_ZNK17QArrayDataPointerIDsE4dataEv(ptr noundef nonnull align 8 dereferenceable(24) %0) #1 comdat align 2 {
  %2 = alloca ptr, align 8
  store ptr %0, ptr %2, align 8
  %3 = load ptr, ptr %2, align 8
  %4 = getelementptr inbounds %struct.QArrayDataPointer, ptr %3, i32 0, i32 1
  %5 = load ptr, ptr %4, align 8
  ret ptr %5
}

; Function Attrs: mustprogress nounwind uwtable
define linkonce_odr noundef zeroext i1 @_ZNK17QArrayDataPointerIDsE6isNullEv(ptr noundef nonnull align 8 dereferenceable(24) %0) #1 comdat align 2 {
  %2 = alloca ptr, align 8
  store ptr %0, ptr %2, align 8
  %3 = load ptr, ptr %2, align 8
  %4 = getelementptr inbounds %struct.QArrayDataPointer, ptr %3, i32 0, i32 1
  %5 = load ptr, ptr %4, align 8
  %6 = icmp ne ptr %5, null
  %7 = xor i1 %6, true
  ret i1 %7
}

; Function Attrs: mustprogress nounwind uwtable
define linkonce_odr noundef ptr @_ZNK17QArrayDataPointerIDsEptEv(ptr noundef nonnull align 8 dereferenceable(24) %0) #1 comdat align 2 {
  %2 = alloca ptr, align 8
  store ptr %0, ptr %2, align 8
  %3 = load ptr, ptr %2, align 8
  ret ptr %3
}

; Function Attrs: noreturn nounwind uwtable
define linkonce_odr hidden void @__clang_call_terminate(ptr noundef %0) #6 comdat {
  %2 = call ptr @__cxa_begin_catch(ptr %0) #14
  call void @_ZSt9terminatev() #17
  unreachable
}

; Function Attrs: mustprogress nounwind uwtable
define linkonce_odr void @_ZN11QStringViewC2I5QCharTnNSt9enable_ifIXsr9QtPrivate20IsCompatibleCharTypeIT_EE5valueEbE4typeELb1EEEPKS3_x(ptr noundef nonnull align 8 dereferenceable(16) %0, ptr noundef %1, i64 noundef %2) unnamed_addr #1 comdat align 2 {
  %4 = alloca ptr, align 8
  %5 = alloca ptr, align 8
  %6 = alloca i64, align 8
  store ptr %0, ptr %4, align 8
  store ptr %1, ptr %5, align 8
  store i64 %2, ptr %6, align 8
  %7 = load ptr, ptr %4, align 8
  %8 = getelementptr inbounds %class.QStringView, ptr %7, i32 0, i32 0
  %9 = load i64, ptr %6, align 8
  store i64 %9, ptr %8, align 8
  %10 = getelementptr inbounds %class.QStringView, ptr %7, i32 0, i32 1
  %11 = load ptr, ptr %5, align 8
  %12 = call noundef ptr @_ZN11QStringView10castHelperI5QCharEEPKDsPKT_(ptr noundef %11) #14
  store ptr %12, ptr %10, align 8
  ret void
}

; Function Attrs: mustprogress nounwind uwtable
define linkonce_odr noundef i64 @_ZNK7QString4sizeEv(ptr noundef nonnull align 8 dereferenceable(24) %0) #1 comdat align 2 {
  %2 = alloca ptr, align 8
  store ptr %0, ptr %2, align 8
  %3 = load ptr, ptr %2, align 8
  %4 = getelementptr inbounds %class.QString, ptr %3, i32 0, i32 0
  %5 = getelementptr inbounds %struct.QArrayDataPointer, ptr %4, i32 0, i32 2
  %6 = load i64, ptr %5, align 8
  ret i64 %6
}

; Function Attrs: mustprogress nounwind uwtable
define linkonce_odr noundef ptr @_ZNK7QString4dataEv(ptr noundef nonnull align 8 dereferenceable(24) %0) #1 comdat align 2 {
  %2 = alloca ptr, align 8
  store ptr %0, ptr %2, align 8
  %3 = load ptr, ptr %2, align 8
  %4 = getelementptr inbounds %class.QString, ptr %3, i32 0, i32 0
  %5 = call noundef ptr @_ZNK17QArrayDataPointerIDsE4dataEv(ptr noundef nonnull align 8 dereferenceable(24) %4) #14
  %6 = icmp ne ptr %5, null
  br i1 %6, label %7, label %10

7:                                                ; preds = %1
  %8 = getelementptr inbounds %class.QString, ptr %3, i32 0, i32 0
  %9 = call noundef ptr @_ZNK17QArrayDataPointerIDsE4dataEv(ptr noundef nonnull align 8 dereferenceable(24) %8) #14
  br label %11

10:                                               ; preds = %1
  br label %11

11:                                               ; preds = %10, %7
  %12 = phi ptr [ %9, %7 ], [ @_ZN7QString6_emptyE, %10 ]
  ret ptr %12
}

; Function Attrs: mustprogress nounwind uwtable
define linkonce_odr noundef zeroext i1 @_ZNK7QString6isNullEv(ptr noundef nonnull align 8 dereferenceable(24) %0) #1 comdat align 2 {
  %2 = alloca ptr, align 8
  store ptr %0, ptr %2, align 8
  %3 = load ptr, ptr %2, align 8
  %4 = getelementptr inbounds %class.QString, ptr %3, i32 0, i32 0
  %5 = call noundef ptr @_ZNK17QArrayDataPointerIDsEptEv(ptr noundef nonnull align 8 dereferenceable(24) %4) #14
  %6 = call noundef zeroext i1 @_ZNK17QArrayDataPointerIDsE6isNullEv(ptr noundef nonnull align 8 dereferenceable(24) %5) #14
  ret i1 %6
}

; Function Attrs: mustprogress uwtable
define linkonce_odr noundef i32 @_ZN7QString17toIntegral_helperIjEET_11QStringViewPbi(i64 %0, ptr %1, ptr noundef %2, i32 noundef %3) #0 comdat align 2 {
  %5 = alloca %class.QStringView, align 8
  %6 = alloca ptr, align 8
  %7 = alloca i32, align 4
  %8 = alloca i64, align 8
  %9 = alloca %class.QStringView, align 8
  %10 = getelementptr inbounds { i64, ptr }, ptr %5, i32 0, i32 0
  store i64 %0, ptr %10, align 8
  %11 = getelementptr inbounds { i64, ptr }, ptr %5, i32 0, i32 1
  store ptr %1, ptr %11, align 8
  store ptr %2, ptr %6, align 8
  store i32 %3, ptr %7, align 4
  call void @llvm.memcpy.p0.p0.i64(ptr align 8 %9, ptr align 8 %5, i64 16, i1 false)
  %12 = load ptr, ptr %6, align 8
  %13 = load i32, ptr %7, align 4
  %14 = getelementptr inbounds { i64, ptr }, ptr %9, i32 0, i32 0
  %15 = load i64, ptr %14, align 8
  %16 = getelementptr inbounds { i64, ptr }, ptr %9, i32 0, i32 1
  %17 = load ptr, ptr %16, align 8
  %18 = call noundef i64 @_ZN7QString17toIntegral_helperE11QStringViewPbj(i64 %15, ptr %17, ptr noundef %12, i32 noundef %13)
  store i64 %18, ptr %8, align 8
  %19 = load i64, ptr %8, align 8
  %20 = trunc i64 %19 to i32
  %21 = zext i32 %20 to i64
  %22 = load i64, ptr %8, align 8
  %23 = icmp ne i64 %21, %22
  br i1 %23, label %24, label %30

24:                                               ; preds = %4
  %25 = load ptr, ptr %6, align 8
  %26 = icmp ne ptr %25, null
  br i1 %26, label %27, label %29

27:                                               ; preds = %24
  %28 = load ptr, ptr %6, align 8
  store i8 0, ptr %28, align 1
  br label %29

29:                                               ; preds = %27, %24
  store i64 0, ptr %8, align 8
  br label %30

30:                                               ; preds = %29, %4
  %31 = load i64, ptr %8, align 8
  %32 = trunc i64 %31 to i32
  ret i32 %32
}

; Function Attrs: mustprogress nounwind uwtable
define linkonce_odr void @_ZN11QStringViewC2I7QStringTnNSt9enable_ifIXsr3std7is_sameIT_S1_EE5valueEbE4typeELb1EEERKS3_(ptr noundef nonnull align 8 dereferenceable(16) %0, ptr noundef nonnull align 8 dereferenceable(24) %1) unnamed_addr #1 comdat align 2 personality ptr @__gxx_personality_v0 {
  %3 = alloca ptr, align 8
  %4 = alloca ptr, align 8
  store ptr %0, ptr %3, align 8
  store ptr %1, ptr %4, align 8
  %5 = load ptr, ptr %3, align 8
  %6 = load ptr, ptr %4, align 8
  %7 = invoke noundef zeroext i1 @_ZNK7QString6isNullEv(ptr noundef nonnull align 8 dereferenceable(24) %6)
          to label %8 unwind label %20

8:                                                ; preds = %2
  br i1 %7, label %9, label %10

9:                                                ; preds = %8
  br label %14

10:                                               ; preds = %8
  %11 = load ptr, ptr %4, align 8
  %12 = invoke noundef ptr @_ZNK7QString4dataEv(ptr noundef nonnull align 8 dereferenceable(24) %11)
          to label %13 unwind label %20

13:                                               ; preds = %10
  br label %14

14:                                               ; preds = %13, %9
  %15 = phi ptr [ null, %9 ], [ %12, %13 ]
  %16 = load ptr, ptr %4, align 8
  %17 = invoke noundef i64 @_ZNK7QString4sizeEv(ptr noundef nonnull align 8 dereferenceable(24) %16)
          to label %18 unwind label %20

18:                                               ; preds = %14
  invoke void @_ZN11QStringViewC2I5QCharTnNSt9enable_ifIXsr9QtPrivate20IsCompatibleCharTypeIT_EE5valueEbE4typeELb1EEEPKS3_x(ptr noundef nonnull align 8 dereferenceable(16) %5, ptr noundef %15, i64 noundef %17)
          to label %19 unwind label %20

19:                                               ; preds = %18
  ret void

20:                                               ; preds = %18, %14, %10, %2
  %21 = landingpad { ptr, i32 }
          catch ptr null
  %22 = extractvalue { ptr, i32 } %21, 0
  call void @__clang_call_terminate(ptr %22) #17
  unreachable
}

; Function Attrs: mustprogress uwtable
define linkonce_odr noundef i32 @_ZNK7QString6toUIntEPbi(ptr noundef nonnull align 8 dereferenceable(24) %0, ptr noundef %1, i32 noundef %2) #0 comdat align 2 {
  %4 = alloca ptr, align 8
  %5 = alloca ptr, align 8
  %6 = alloca i32, align 4
  %7 = alloca %class.QStringView, align 8
  store ptr %0, ptr %4, align 8
  store ptr %1, ptr %5, align 8
  store i32 %2, ptr %6, align 4
  %8 = load ptr, ptr %4, align 8
  call void @_ZN11QStringViewC2I7QStringTnNSt9enable_ifIXsr3std7is_sameIT_S1_EE5valueEbE4typeELb1EEERKS3_(ptr noundef nonnull align 8 dereferenceable(16) %7, ptr noundef nonnull align 8 dereferenceable(24) %8) #14
  %9 = load ptr, ptr %5, align 8
  %10 = load i32, ptr %6, align 4
  %11 = getelementptr inbounds { i64, ptr }, ptr %7, i32 0, i32 0
  %12 = load i64, ptr %11, align 8
  %13 = getelementptr inbounds { i64, ptr }, ptr %7, i32 0, i32 1
  %14 = load ptr, ptr %13, align 8
  %15 = call noundef i32 @_ZN7QString17toIntegral_helperIjEET_11QStringViewPbi(i64 %12, ptr %14, ptr noundef %9, i32 noundef %10)
  ret i32 %15
}

; Function Attrs: mustprogress uwtable
define void @_ZN12DecodeAsItem11setSelectorERK7QString(ptr noundef nonnull align 8 dereferenceable(120) %0, ptr noundef nonnull align 8 dereferenceable(24) %1) #0 align 2 {
  %3 = alloca ptr, align 8
  %4 = alloca ptr, align 8
  %5 = alloca i32, align 4
  store ptr %0, ptr %3, align 8
  store ptr %1, ptr %4, align 8
  %6 = load ptr, ptr %3, align 8
  %7 = getelementptr inbounds %class.DecodeAsItem, ptr %6, i32 0, i32 1
  %8 = load ptr, ptr %7, align 8
  %9 = call i32 @get_dissector_table_selector_type(ptr noundef %8)
  store i32 %9, ptr %5, align 4
  %10 = load i32, ptr %5, align 4
  %11 = icmp eq i32 %10, 26
  br i1 %11, label %24, label %12

12:                                               ; preds = %2
  %13 = load i32, ptr %5, align 4
  %14 = icmp eq i32 %13, 27
  br i1 %14, label %24, label %15

15:                                               ; preds = %12
  %16 = load i32, ptr %5, align 4
  %17 = icmp eq i32 %16, 43
  br i1 %17, label %24, label %18

18:                                               ; preds = %15
  %19 = load i32, ptr %5, align 4
  %20 = icmp eq i32 %19, 45
  br i1 %20, label %24, label %21

21:                                               ; preds = %18
  %22 = load i32, ptr %5, align 4
  %23 = icmp eq i32 %22, 28
  br i1 %23, label %24, label %28

24:                                               ; preds = %21, %18, %15, %12, %2
  %25 = load ptr, ptr %4, align 8
  %26 = getelementptr inbounds %class.DecodeAsItem, ptr %6, i32 0, i32 4
  %27 = call noundef nonnull align 8 dereferenceable(24) ptr @_ZN7QStringaSERKS_(ptr noundef nonnull align 8 dereferenceable(24) %26, ptr noundef nonnull align 8 dereferenceable(24) %25) #14
  br label %63

28:                                               ; preds = %21
  %29 = load i32, ptr %5, align 4
  %30 = icmp eq i32 %29, 3
  br i1 %30, label %58, label %31

31:                                               ; preds = %28
  %32 = load i32, ptr %5, align 4
  %33 = icmp eq i32 %32, 4
  br i1 %33, label %58, label %34

34:                                               ; preds = %31
  %35 = load i32, ptr %5, align 4
  %36 = icmp eq i32 %35, 5
  br i1 %36, label %58, label %37

37:                                               ; preds = %34
  %38 = load i32, ptr %5, align 4
  %39 = icmp eq i32 %38, 6
  br i1 %39, label %58, label %40

40:                                               ; preds = %37
  %41 = load i32, ptr %5, align 4
  %42 = icmp eq i32 %41, 7
  br i1 %42, label %58, label %43

43:                                               ; preds = %40
  %44 = load i32, ptr %5, align 4
  %45 = icmp eq i32 %44, 35
  br i1 %45, label %58, label %46

46:                                               ; preds = %43
  %47 = load i32, ptr %5, align 4
  %48 = icmp eq i32 %47, 8
  br i1 %48, label %58, label %49

49:                                               ; preds = %46
  %50 = load i32, ptr %5, align 4
  %51 = icmp eq i32 %50, 9
  br i1 %51, label %58, label %52

52:                                               ; preds = %49
  %53 = load i32, ptr %5, align 4
  %54 = icmp eq i32 %53, 10
  br i1 %54, label %58, label %55

55:                                               ; preds = %52
  %56 = load i32, ptr %5, align 4
  %57 = icmp eq i32 %56, 11
  br i1 %57, label %58, label %62

58:                                               ; preds = %55, %52, %49, %46, %43, %40, %37, %34, %31, %28
  %59 = load ptr, ptr %4, align 8
  %60 = call noundef i32 @_ZNK7QString6toUIntEPbi(ptr noundef nonnull align 8 dereferenceable(24) %59, ptr noundef null, i32 noundef 0)
  %61 = getelementptr inbounds %class.DecodeAsItem, ptr %6, i32 0, i32 3
  store i32 %60, ptr %61, align 8
  br label %62

62:                                               ; preds = %58, %55
  br label %63

63:                                               ; preds = %62, %24
  call void @_ZN12DecodeAsItem13updateHandlesEv(ptr noundef nonnull align 8 dereferenceable(120) %6)
  ret void
}