; Function Attrs: mustprogress uwtable
define void @_ZN12DecodeAsItem11setSelectorERK7QString(ptr noundef nonnull align 8 dereferenceable(120) %0, ptr noundef nonnull align 8 dereferenceable(24) %1) local_unnamed_addr #0 align 2 personality ptr @__gxx_personality_v0 {
  %3 = getelementptr inbounds i8, ptr %0, i64 8
  %4 = load ptr, ptr %3, align 8
  %5 = tail call i32 @get_dissector_table_selector_type(ptr noundef %4)
  switch i32 %5, label %9 [
    i32 45, label %6
    i32 43, label %6
    i32 28, label %6
    i32 27, label %6
    i32 26, label %6
  ]

6:                                                ; preds = %2, %2, %2, %2, %2
  %7 = getelementptr inbounds i8, ptr %0, i64 32
  %8 = tail call noundef nonnull align 8 dereferenceable(24) ptr @_ZN7QStringaSERKS_(ptr noundef nonnull align 8 dereferenceable(24) %7, ptr noundef nonnull align 8 dereferenceable(24) %1) #19
  br label %21

9:                                                ; preds = %2
  %10 = icmp eq i32 %5, 35
  %11 = add i32 %5, -3
  %12 = icmp ult i32 %11, 9
  %or.cond25 = or i1 %10, %12
  br i1 %or.cond25, label %_ZNK7QString6toUIntEPbi.exit, label %21

_ZNK7QString6toUIntEPbi.exit:                     ; preds = %9
  %13 = getelementptr inbounds i8, ptr %1, i64 8
  %14 = load ptr, ptr %13, align 8
  %15 = getelementptr inbounds i8, ptr %1, i64 16
  %16 = load i64, ptr %15, align 8
  %17 = tail call noundef i64 @_ZN7QString17toIntegral_helperE11QStringViewPbj(i64 %16, ptr %14, ptr noundef null, i32 noundef 0)
  %18 = tail call i64 @llvm.umin.i64(i64 %17, i64 4294967296)
  %19 = trunc i64 %18 to i32
  %20 = getelementptr inbounds i8, ptr %0, i64 24
  store i32 %19, ptr %20, align 8
  br label %21

21:                                               ; preds = %_ZNK7QString6toUIntEPbi.exit, %9, %6
  tail call void @_ZN12DecodeAsItem13updateHandlesEv(ptr noundef nonnull align 8 dereferenceable(120) %0)
  ret void
}